target datalayout = "e-m:e-p270:32:32-p271:32:32-p272:64:64-i64:64-i128:128-f80:128-n8:16:32:64-S128"
target triple = "x86_64-pc-linux-gnu"

%struct.If_Cut_t_ = type <{ float, float, float, float, i32, i32, i32, i64, [0 x i32] }>

; Function Attrs: nounwind uwtable
define float @If_CutAreaDerefed(ptr noundef %0, ptr noundef %1) #0 {
  %3 = alloca float, align 4
  %4 = alloca ptr, align 8
  %5 = alloca ptr, align 8
  %6 = alloca float, align 4
  %7 = alloca float, align 4
  %8 = alloca i32, align 4
  store ptr %0, ptr %4, align 8, !tbaa !35
  store ptr %1, ptr %5, align 8, !tbaa !15
  call void @llvm.lifetime.start.p0(i64 4, ptr %6) #9
  call void @llvm.lifetime.start.p0(i64 4, ptr %7) #9
  %9 = load ptr, ptr %5, align 8, !tbaa !15
  %10 = getelementptr inbounds nuw %struct.If_Cut_t_, ptr %9, i32 0, i32 7
  %11 = load i64, ptr %10, align 4
  %12 = lshr i64 %11, 24
  %13 = and i64 %12, 255
  %14 = trunc i64 %13 to i32
  %15 = icmp slt i32 %14, 2
  br i1 %15, label %16, label %17

16:                                               ; preds = %2
  store float 0.000000e+00, ptr %3, align 4
  store i32 1, ptr %8, align 4
  br label %25

17:                                               ; preds = %2
  %18 = load ptr, ptr %4, align 8, !tbaa !35
  %19 = load ptr, ptr %5, align 8, !tbaa !15
  %20 = call float @If_CutAreaRef(ptr noundef %18, ptr noundef %19)
  store float %20, ptr %7, align 4, !tbaa !106
  %21 = load ptr, ptr %4, align 8, !tbaa !35
  %22 = load ptr, ptr %5, align 8, !tbaa !15
  %23 = call float @If_CutAreaDeref(ptr noundef %21, ptr noundef %22)
  store float %23, ptr %6, align 4, !tbaa !106
  %24 = load float, ptr %6, align 4, !tbaa !106
  store float %24, ptr %3, align 4
  store i32 1, ptr %8, align 4
  br label %25

25:                                               ; preds = %17, %16
  call void @llvm.lifetime.end.p0(i64 4, ptr %7) #9
  call void @llvm.lifetime.end.p0(i64 4, ptr %6) #9
  %26 = load float, ptr %3, align 4
  ret float %26
}