; Function Attrs: nofree nosync nounwind memory(readwrite, inaccessiblemem: none) uwtable
define float @If_CutAreaDerefed(ptr noundef readonly captures(none) %0, ptr noundef readonly captures(none) %1) local_unnamed_addr #8 {
  %3 = getelementptr inbounds nuw i8, ptr %1, i64 28
  %4 = load i64, ptr %3, align 4
  %5 = and i64 %4, 4261412864
  %6 = icmp eq i64 %5, 0
  br i1 %6, label %10, label %7

7:                                                ; preds = %2
  %8 = tail call float @If_CutAreaRef(ptr noundef %0, ptr noundef nonnull %1)
  %9 = tail call float @If_CutAreaDeref(ptr noundef %0, ptr noundef nonnull %1)
  br label %10

10:                                               ; preds = %2, %7
  %.0 = phi float [ %9, %7 ], [ 0.000000e+00, %2 ]
  ret float %.0
}